; Function Attrs: mustprogress nofree norecurse nosync nounwind willreturn memory(argmem: write) uwtable
define dso_local void @_ZN11conformance18JspbEncodingConfigC2EPN6google8protobuf5ArenaE(ptr nocapture noundef nonnull writeonly align 8 dereferenceable(24) %this, ptr noundef %arena) unnamed_addr #14 align 2 personality ptr @__gxx_personality_v0 {
entry:
  %_internal_metadata_.i.i = getelementptr inbounds i8, ptr %this, i64 8
  store ptr %arena, ptr %_internal_metadata_.i.i, align 8
  store ptr getelementptr inbounds ({ [22 x ptr] }, ptr @_ZTVN11conformance18JspbEncodingConfigE, i64 0, i32 0, i64 2), ptr %this, align 8
  %_cached_size_ = getelementptr inbounds i8, ptr %this, i64 20
  store i32 0, ptr %_cached_size_, align 4
  %use_jspb_array_any_format_.i = getelementptr inbounds i8, ptr %this, i64 16
  store i8 0, ptr %use_jspb_array_any_format_.i, align 8
  ret void
}